; Function Attrs: mustprogress uwtable
define hidden void @_ZN2dt6solver13oc_push_stackEPN3euf5enodeE(ptr noundef nonnull align 8 dereferenceable(472) %0, ptr noundef %1) local_unnamed_addr #3 align 2 {
  %3 = getelementptr inbounds nuw i8, ptr %0, i64 440
  %4 = load ptr, ptr %3, align 8, !tbaa !446
  %5 = icmp eq ptr %4, null
  br i1 %5, label %12, label %6

6:                                                ; preds = %2
  %7 = getelementptr inbounds i8, ptr %4, i64 -4
  %8 = load i32, ptr %7, align 4, !tbaa !387
  %9 = getelementptr inbounds i8, ptr %4, i64 -8
  %10 = load i32, ptr %9, align 4, !tbaa !387
  %11 = icmp eq i32 %8, %10
  br i1 %11, label %12, label %13

12:                                               ; preds = %6, %2
  tail call void @_ZN6vectorISt4pairIN2dt6solver8stack_opEPN3euf5enodeEELb0EjE13expand_vectorEv(ptr noundef nonnull align 8 dereferenceable(8) %3)
  %.pre.i = load ptr, ptr %3, align 8, !tbaa !446
  %.phi.trans.insert.i = getelementptr inbounds i8, ptr %.pre.i, i64 -4
  %.pre2.i = load i32, ptr %.phi.trans.insert.i, align 4, !tbaa !387
  br label %13

13:                                               ; preds = %12, %6
  %14 = phi i32 [ %.pre2.i, %12 ], [ %8, %6 ]
  %15 = phi ptr [ %.pre.i, %12 ], [ %4, %6 ]
  %16 = zext i32 %14 to i64
  %17 = getelementptr inbounds nuw %"struct.std::pair", ptr %15, i64 %16
  store i32 1, ptr %17, align 8
  %.sroa.411.0..sroa_idx = getelementptr inbounds nuw i8, ptr %17, i64 8
  store ptr %1, ptr %.sroa.411.0..sroa_idx, align 8
  %18 = load ptr, ptr %3, align 8, !tbaa !446
  %19 = getelementptr inbounds i8, ptr %18, i64 -4
  %20 = load i32, ptr %19, align 4, !tbaa !387
  %21 = add i32 %20, 1
  store i32 %21, ptr %19, align 4, !tbaa !387
  %22 = getelementptr inbounds i8, ptr %18, i64 -8
  %23 = load i32, ptr %22, align 4, !tbaa !387
  %24 = icmp eq i32 %21, %23
  br i1 %24, label %25, label %_ZN6vectorISt4pairIN2dt6solver8stack_opEPN3euf5enodeEELb0EjE9push_backEOS7_.exit6

25:                                               ; preds = %13
  tail call void @_ZN6vectorISt4pairIN2dt6solver8stack_opEPN3euf5enodeEELb0EjE13expand_vectorEv(ptr noundef nonnull align 8 dereferenceable(8) %3)
  %.pre.i3 = load ptr, ptr %3, align 8, !tbaa !446
  %.phi.trans.insert.i4 = getelementptr inbounds i8, ptr %.pre.i3, i64 -4
  %.pre2.i5 = load i32, ptr %.phi.trans.insert.i4, align 4, !tbaa !387
  br label %_ZN6vectorISt4pairIN2dt6solver8stack_opEPN3euf5enodeEELb0EjE9push_backEOS7_.exit6

_ZN6vectorISt4pairIN2dt6solver8stack_opEPN3euf5enodeEELb0EjE9push_backEOS7_.exit6: ; preds = %13, %25
  %26 = phi i32 [ %.pre2.i5, %25 ], [ %21, %13 ]
  %27 = phi ptr [ %.pre.i3, %25 ], [ %18, %13 ]
  %28 = zext i32 %26 to i64
  %29 = getelementptr inbounds nuw %"struct.std::pair", ptr %27, i64 %28
  store i32 0, ptr %29, align 8
  %.sroa.47.0..sroa_idx = getelementptr inbounds nuw i8, ptr %29, i64 8
  store ptr %1, ptr %.sroa.47.0..sroa_idx, align 8
  %30 = load ptr, ptr %3, align 8, !tbaa !446
  %31 = getelementptr inbounds i8, ptr %30, i64 -4
  %32 = load i32, ptr %31, align 4, !tbaa !387
  %33 = add i32 %32, 1
  store i32 %33, ptr %31, align 4, !tbaa !387
  ret void
}